; Function Attrs: mustprogress nofree norecurse nosync nounwind willreturn memory(argmem: read) uwtable
define internal range(i32 -20480, -2147483648) i32 @mid6_16(ptr noundef readonly captures(none) %0, ptr noundef readonly captures(none) %1, ptr noundef readonly captures(none) %2, ptr noundef readonly captures(none) %3, ptr noundef readonly captures(none) %4, ptr noundef readonly captures(none) %5, i32 noundef %6, i32 noundef %7, i32 noundef %8, i32 noundef %9) #6 {
  %11 = add nsw i32 %8, %7
  %12 = icmp slt i32 %11, 0
  %..i = tail call i32 @llvm.smin.i32(i32 %11, i32 %6)
  %.0.i = select i1 %12, i32 0, i32 %..i
  %13 = sext i32 %.0.i to i64
  %14 = getelementptr inbounds i16, ptr %0, i64 %13
  %15 = load i16, ptr %14, align 2, !tbaa !83
  %16 = zext i16 %15 to i32
  %17 = sub nsw i32 %7, %8
  %18 = icmp slt i32 %17, 0
  %..i24 = tail call i32 @llvm.smin.i32(i32 %17, i32 %6)
  %.0.i25 = select i1 %18, i32 0, i32 %..i24
  %19 = sext i32 %.0.i25 to i64
  %20 = getelementptr inbounds i16, ptr %1, i64 %19
  %21 = load i16, ptr %20, align 2, !tbaa !83
  %22 = zext i16 %21 to i32
  %23 = add nuw nsw i32 %22, %16
  %24 = mul nuw nsw i32 %23, 20
  %25 = mul nsw i32 %8, 3
  %26 = add nsw i32 %25, %7
  %27 = icmp slt i32 %26, 0
  %..i26 = tail call i32 @llvm.smin.i32(i32 %26, i32 %6)
  %.0.i27 = select i1 %27, i32 0, i32 %..i26
  %28 = sext i32 %.0.i27 to i64
  %29 = getelementptr inbounds i16, ptr %2, i64 %28
  %30 = load i16, ptr %29, align 2, !tbaa !83
  %31 = zext i16 %30 to i32
  %32 = sub nsw i32 %7, %25
  %33 = icmp slt i32 %32, 0
  %..i28 = tail call i32 @llvm.smin.i32(i32 %32, i32 %6)
  %.0.i29 = select i1 %33, i32 0, i32 %..i28
  %34 = sext i32 %.0.i29 to i64
  %35 = getelementptr inbounds i16, ptr %3, i64 %34
  %36 = load i16, ptr %35, align 2, !tbaa !83
  %37 = zext i16 %36 to i32
  %38 = add nuw nsw i32 %37, %31
  %.neg = mul nsw i32 %38, -5
  %39 = mul nsw i32 %8, 5
  %40 = add nsw i32 %39, %7
  %41 = icmp slt i32 %40, 0
  %..i30 = tail call i32 @llvm.smin.i32(i32 %40, i32 %6)
  %.0.i31 = select i1 %41, i32 0, i32 %..i30
  %42 = sext i32 %.0.i31 to i64
  %43 = getelementptr inbounds i16, ptr %4, i64 %42
  %44 = load i16, ptr %43, align 2, !tbaa !83
  %45 = zext i16 %44 to i32
  %46 = sub nsw i32 %7, %39
  %47 = icmp slt i32 %46, 0
  %..i32 = tail call i32 @llvm.smin.i32(i32 %46, i32 %6)
  %.0.i33 = select i1 %47, i32 0, i32 %..i32
  %48 = sext i32 %.0.i33 to i64
  %49 = getelementptr inbounds i16, ptr %5, i64 %48
  %50 = load i16, ptr %49, align 2, !tbaa !83
  %51 = zext i16 %50 to i32
  %52 = add nuw nsw i32 %24, 16
  %53 = add nuw nsw i32 %52, %45
  %54 = add nsw i32 %53, %.neg
  %55 = add nsw i32 %54, %51
  %56 = ashr i32 %55, 5
  %notmask.i = shl nsw i32 -1, %9
  %57 = and i32 %56, %notmask.i
  %.not.i = icmp eq i32 %57, 0
  %58 = xor i32 %notmask.i, -1
  %isnotneg.inv.i = icmp slt i32 %56, 0
  %59 = select i1 %isnotneg.inv.i, i32 0, i32 %58
  %.0.i34 = select i1 %.not.i, i32 %56, i32 %59
  ret i32 %.0.i34
}